target datalayout = "e-m:e-p270:32:32-p271:32:32-p272:64:64-i64:64-i128:128-f80:128-n8:16:32:64-S128"
target triple = "x86_64-pc-linux-gnu"

; Function Attrs: nounwind uwtable
define internal i32 @pixelize_avg8(ptr noundef %0, ptr noundef %1, i64 noundef %2, i64 noundef %3, i32 noundef %4, i32 noundef %5) #1 {
  %7 = alloca ptr, align 8
  %8 = alloca ptr, align 8
  %9 = alloca i64, align 8
  %10 = alloca i64, align 8
  %11 = alloca i32, align 4
  %12 = alloca i32, align 4
  %13 = alloca ptr, align 8
  %14 = alloca ptr, align 8
  %15 = alloca i32, align 4
  %16 = alloca i8, align 1
  %17 = alloca i32, align 4
  %18 = alloca i32, align 4
  %19 = alloca i32, align 4
  %20 = alloca i32, align 4
  %21 = alloca i32, align 4
  store ptr %0, ptr %7, align 8, !tbaa !53
  store ptr %1, ptr %8, align 8, !tbaa !53
  store i64 %2, ptr %9, align 8, !tbaa !51
  store i64 %3, ptr %10, align 8, !tbaa !51
  store i32 %4, ptr %11, align 4, !tbaa !37
  store i32 %5, ptr %12, align 4, !tbaa !37
  call void @llvm.lifetime.start.p0(i64 8, ptr %13) #5
  %22 = load ptr, ptr %7, align 8, !tbaa !53
  store ptr %22, ptr %13, align 8, !tbaa !53
  call void @llvm.lifetime.start.p0(i64 8, ptr %14) #5
  %23 = load ptr, ptr %8, align 8, !tbaa !53
  store ptr %23, ptr %14, align 8, !tbaa !53
  call void @llvm.lifetime.start.p0(i64 4, ptr %15) #5
  store i32 0, ptr %15, align 4, !tbaa !37
  call void @llvm.lifetime.start.p0(i64 1, ptr %16) #5
  call void @llvm.lifetime.start.p0(i64 4, ptr %17) #5
  store i32 0, ptr %17, align 4, !tbaa !37
  br label %24

24:                                               ; preds = %52, %6
  %25 = load i32, ptr %17, align 4, !tbaa !37
  %26 = load i32, ptr %12, align 4, !tbaa !37
  %27 = icmp slt i32 %25, %26
  br i1 %27, label %29, label %28

28:                                               ; preds = %24
  store i32 2, ptr %18, align 4
  call void @llvm.lifetime.end.p0(i64 4, ptr %17) #5
  br label %55

29:                                               ; preds = %24
  call void @llvm.lifetime.start.p0(i64 4, ptr %19) #5
  store i32 0, ptr %19, align 4, !tbaa !37
  br label %30

30:                                               ; preds = %44, %29
  %31 = load i32, ptr %19, align 4, !tbaa !37
  %32 = load i32, ptr %11, align 4, !tbaa !37
  %33 = icmp slt i32 %31, %32
  br i1 %33, label %35, label %34

34:                                               ; preds = %30
  store i32 5, ptr %18, align 4
  call void @llvm.lifetime.end.p0(i64 4, ptr %19) #5
  br label %47

35:                                               ; preds = %30
  %36 = load ptr, ptr %13, align 8, !tbaa !53
  %37 = load i32, ptr %19, align 4, !tbaa !37
  %38 = sext i32 %37 to i64
  %39 = getelementptr inbounds i8, ptr %36, i64 %38
  %40 = load i8, ptr %39, align 1, !tbaa !70
  %41 = zext i8 %40 to i32
  %42 = load i32, ptr %15, align 4, !tbaa !37
  %43 = add i32 %42, %41
  store i32 %43, ptr %15, align 4, !tbaa !37
  br label %44

44:                                               ; preds = %35
  %45 = load i32, ptr %19, align 4, !tbaa !37
  %46 = add nsw i32 %45, 1
  store i32 %46, ptr %19, align 4, !tbaa !37
  br label %30, !llvm.loop !71

47:                                               ; preds = %34
  %48 = load i64, ptr %9, align 8, !tbaa !51
  %49 = udiv i64 %48, 1
  %50 = load ptr, ptr %13, align 8, !tbaa !53
  %51 = getelementptr inbounds nuw i8, ptr %50, i64 %49
  store ptr %51, ptr %13, align 8, !tbaa !53
  br label %52

52:                                               ; preds = %47
  %53 = load i32, ptr %17, align 4, !tbaa !37
  %54 = add nsw i32 %53, 1
  store i32 %54, ptr %17, align 4, !tbaa !37
  br label %24, !llvm.loop !72

55:                                               ; preds = %28
  %56 = load i32, ptr %15, align 4, !tbaa !37
  %57 = load i32, ptr %11, align 4, !tbaa !37
  %58 = load i32, ptr %12, align 4, !tbaa !37
  %59 = mul nsw i32 %57, %58
  %60 = udiv i32 %56, %59
  %61 = trunc i32 %60 to i8
  store i8 %61, ptr %16, align 1, !tbaa !70
  call void @llvm.lifetime.start.p0(i64 4, ptr %20) #5
  store i32 0, ptr %20, align 4, !tbaa !37
  br label %62

62:                                               ; preds = %87, %55
  %63 = load i32, ptr %20, align 4, !tbaa !37
  %64 = load i32, ptr %12, align 4, !tbaa !37
  %65 = icmp slt i32 %63, %64
  br i1 %65, label %67, label %66

66:                                               ; preds = %62
  store i32 8, ptr %18, align 4
  call void @llvm.lifetime.end.p0(i64 4, ptr %20) #5
  br label %90

67:                                               ; preds = %62
  call void @llvm.lifetime.start.p0(i64 4, ptr %21) #5
  store i32 0, ptr %21, align 4, !tbaa !37
  br label %68

68:                                               ; preds = %79, %67
  %69 = load i32, ptr %21, align 4, !tbaa !37
  %70 = load i32, ptr %11, align 4, !tbaa !37
  %71 = icmp slt i32 %69, %70
  br i1 %71, label %73, label %72

72:                                               ; preds = %68
  store i32 11, ptr %18, align 4
  call void @llvm.lifetime.end.p0(i64 4, ptr %21) #5
  br label %82

73:                                               ; preds = %68
  %74 = load i8, ptr %16, align 1, !tbaa !70
  %75 = load ptr, ptr %14, align 8, !tbaa !53
  %76 = load i32, ptr %21, align 4, !tbaa !37
  %77 = sext i32 %76 to i64
  %78 = getelementptr inbounds i8, ptr %75, i64 %77
  store i8 %74, ptr %78, align 1, !tbaa !70
  br label %79

79:                                               ; preds = %73
  %80 = load i32, ptr %21, align 4, !tbaa !37
  %81 = add nsw i32 %80, 1
  store i32 %81, ptr %21, align 4, !tbaa !37
  br label %68, !llvm.loop !73

82:                                               ; preds = %72
  %83 = load i64, ptr %10, align 8, !tbaa !51
  %84 = udiv i64 %83, 1
  %85 = load ptr, ptr %14, align 8, !tbaa !53
  %86 = getelementptr inbounds nuw i8, ptr %85, i64 %84
  store ptr %86, ptr %14, align 8, !tbaa !53
  br label %87

87:                                               ; preds = %82
  %88 = load i32, ptr %20, align 4, !tbaa !37
  %89 = add nsw i32 %88, 1
  store i32 %89, ptr %20, align 4, !tbaa !37
  br label %62, !llvm.loop !74

90:                                               ; preds = %66
  store i32 1, ptr %18, align 4
  call void @llvm.lifetime.end.p0(i64 1, ptr %16) #5
  call void @llvm.lifetime.end.p0(i64 4, ptr %15) #5
  call void @llvm.lifetime.end.p0(i64 8, ptr %14) #5
  call void @llvm.lifetime.end.p0(i64 8, ptr %13) #5
  ret i32 0
}