; Function Attrs: nofree norecurse nosync nounwind memory(argmem: readwrite) uwtable
define internal noundef i32 @pixelize_avg8(ptr noundef readonly captures(none) %0, ptr noundef writeonly captures(none) %1, i64 noundef %2, i64 noundef %3, i32 noundef %4, i32 noundef %5) #4 {
  %7 = icmp sgt i32 %5, 0
  %8 = icmp sgt i32 %4, 0
  %or.cond57 = and i1 %7, %8
  br i1 %or.cond57, label %.preheader33.us.preheader, label %._crit_edge44

.preheader33.us.preheader:                        ; preds = %6
  %wide.trip.count = zext nneg i32 %4 to i64
  br label %.preheader33.us

.preheader33.us:                                  ; preds = %.preheader33.us.preheader, %._crit_edge.us
  %.02838.us = phi i32 [ %15, %._crit_edge.us ], [ 0, %.preheader33.us.preheader ]
  %.02937.us = phi ptr [ %14, %._crit_edge.us ], [ %0, %.preheader33.us.preheader ]
  %.03036.us = phi i32 [ %13, %._crit_edge.us ], [ 0, %.preheader33.us.preheader ]
  br label %9

9:                                                ; preds = %.preheader33.us, %9
  %indvars.iv = phi i64 [ 0, %.preheader33.us ], [ %indvars.iv.next, %9 ]
  %.134.us = phi i32 [ %.03036.us, %.preheader33.us ], [ %13, %9 ]
  %10 = getelementptr inbounds nuw i8, ptr %.02937.us, i64 %indvars.iv
  %11 = load i8, ptr %10, align 1, !tbaa !62
  %12 = zext i8 %11 to i32
  %13 = add i32 %.134.us, %12
  %indvars.iv.next = add nuw nsw i64 %indvars.iv, 1
  %exitcond.not = icmp eq i64 %indvars.iv.next, %wide.trip.count
  br i1 %exitcond.not, label %._crit_edge.us, label %9, !llvm.loop !63

._crit_edge.us:                                   ; preds = %9
  %14 = getelementptr inbounds nuw i8, ptr %.02937.us, i64 %2
  %15 = add nuw nsw i32 %.02838.us, 1
  %exitcond49.not = icmp eq i32 %15, %5
  br i1 %exitcond49.not, label %._crit_edge39, label %.preheader33.us, !llvm.loop !64

._crit_edge39:                                    ; preds = %._crit_edge.us
  %16 = mul nuw nsw i32 %5, %4
  %17 = udiv i32 %13, %16
  %18 = trunc i32 %17 to i8
  br i1 %7, label %.preheader.us.preheader, label %._crit_edge44

.preheader.us.preheader:                          ; preds = %._crit_edge39
  %19 = zext nneg i32 %4 to i64
  br label %.preheader.us

.preheader.us:                                    ; preds = %.preheader.us.preheader, %.preheader.us
  %.02643.us = phi i32 [ %21, %.preheader.us ], [ 0, %.preheader.us.preheader ]
  %.03142.us = phi ptr [ %20, %.preheader.us ], [ %1, %.preheader.us.preheader ]
  tail call void @llvm.memset.p0.i64(ptr align 1 %.03142.us, i8 %18, i64 %19, i1 false), !tbaa !62
  %20 = getelementptr inbounds nuw i8, ptr %.03142.us, i64 %3
  %21 = add nuw nsw i32 %.02643.us, 1
  %exitcond53.not = icmp eq i32 %21, %5
  br i1 %exitcond53.not, label %._crit_edge44, label %.preheader.us, !llvm.loop !65

._crit_edge44:                                    ; preds = %.preheader.us, %6, %._crit_edge39
  ret i32 0
}